target datalayout = "e-m:e-p270:32:32-p271:32:32-p272:64:64-i64:64-i128:128-f80:128-n8:16:32:64-S128"
target triple = "x86_64-pc-linux-gnu"

%struct.ZSTD_seqSymbol = type { i16, i8, i8, i32 }
%struct.ZSTD_OffsetInfo = type { i32, i32 }
%struct.ZSTD_seqSymbol_header = type { i32, i32 }

; Function Attrs: nounwind uwtable
define internal i64 @ZSTD_getOffsetInfo(ptr noundef %0, i32 noundef %1) #0 {
  %3 = alloca %struct.ZSTD_OffsetInfo, align 4
  %4 = alloca ptr, align 8
  %5 = alloca i32, align 4
  %6 = alloca ptr, align 8
  %7 = alloca i32, align 4
  %8 = alloca ptr, align 8
  %9 = alloca i32, align 4
  %10 = alloca i32, align 4
  store ptr %0, ptr %4, align 8, !tbaa !3
  store i32 %1, ptr %5, align 4, !tbaa !9
  call void @llvm.memset.p0.i64(ptr align 4 %3, i8 0, i64 8, i1 false)
  %11 = load i32, ptr %5, align 4, !tbaa !9
  %12 = icmp ne i32 %11, 0
  br i1 %12, label %13, label %77

13:                                               ; preds = %2
  call void @llvm.lifetime.start.p0(i64 8, ptr %6) #14
  %14 = load ptr, ptr %4, align 8, !tbaa !3
  store ptr %14, ptr %6, align 8, !tbaa !3
  call void @llvm.lifetime.start.p0(i64 4, ptr %7) #14
  %15 = load ptr, ptr %6, align 8, !tbaa !3
  %16 = getelementptr inbounds %struct.ZSTD_seqSymbol_header, ptr %15, i64 0
  %17 = getelementptr inbounds nuw %struct.ZSTD_seqSymbol_header, ptr %16, i32 0, i32 1
  %18 = load i32, ptr %17, align 4, !tbaa !49
  store i32 %18, ptr %7, align 4, !tbaa !9
  call void @llvm.lifetime.start.p0(i64 8, ptr %8) #14
  %19 = load ptr, ptr %4, align 8, !tbaa !3
  %20 = getelementptr inbounds %struct.ZSTD_seqSymbol, ptr %19, i64 1
  store ptr %20, ptr %8, align 8, !tbaa !3
  call void @llvm.lifetime.start.p0(i64 4, ptr %9) #14
  %21 = load i32, ptr %7, align 4, !tbaa !9
  %22 = shl i32 1, %21
  store i32 %22, ptr %9, align 4, !tbaa !9
  call void @llvm.lifetime.start.p0(i64 4, ptr %10) #14
  br label %23

23:                                               ; preds = %13
  br label %24

24:                                               ; preds = %23
  br label %25

25:                                               ; preds = %24
  store i32 0, ptr %10, align 4, !tbaa !9
  br label %26

26:                                               ; preds = %68, %25
  %27 = load i32, ptr %10, align 4, !tbaa !9
  %28 = load i32, ptr %9, align 4, !tbaa !9
  %29 = icmp ult i32 %27, %28
  br i1 %29, label %30, label %71

30:                                               ; preds = %26
  %31 = getelementptr inbounds nuw %struct.ZSTD_OffsetInfo, ptr %3, i32 0, i32 1
  %32 = load i32, ptr %31, align 4, !tbaa !49
  %33 = load ptr, ptr %8, align 8, !tbaa !3
  %34 = load i32, ptr %10, align 4, !tbaa !9
  %35 = zext i32 %34 to i64
  %36 = getelementptr inbounds nuw %struct.ZSTD_seqSymbol, ptr %33, i64 %35
  %37 = getelementptr inbounds nuw %struct.ZSTD_seqSymbol, ptr %36, i32 0, i32 1
  %38 = load i8, ptr %37, align 2, !tbaa !53
  %39 = zext i8 %38 to i32
  %40 = icmp ugt i32 %32, %39
  br i1 %40, label %41, label %44

41:                                               ; preds = %30
  %42 = getelementptr inbounds nuw %struct.ZSTD_OffsetInfo, ptr %3, i32 0, i32 1
  %43 = load i32, ptr %42, align 4, !tbaa !49
  br label %52

44:                                               ; preds = %30
  %45 = load ptr, ptr %8, align 8, !tbaa !3
  %46 = load i32, ptr %10, align 4, !tbaa !9
  %47 = zext i32 %46 to i64
  %48 = getelementptr inbounds nuw %struct.ZSTD_seqSymbol, ptr %45, i64 %47
  %49 = getelementptr inbounds nuw %struct.ZSTD_seqSymbol, ptr %48, i32 0, i32 1
  %50 = load i8, ptr %49, align 2, !tbaa !53
  %51 = zext i8 %50 to i32
  br label %52

52:                                               ; preds = %44, %41
  %53 = phi i32 [ %43, %41 ], [ %51, %44 ]
  %54 = getelementptr inbounds nuw %struct.ZSTD_OffsetInfo, ptr %3, i32 0, i32 1
  store i32 %53, ptr %54, align 4, !tbaa !49
  %55 = load ptr, ptr %8, align 8, !tbaa !3
  %56 = load i32, ptr %10, align 4, !tbaa !9
  %57 = zext i32 %56 to i64
  %58 = getelementptr inbounds nuw %struct.ZSTD_seqSymbol, ptr %55, i64 %57
  %59 = getelementptr inbounds nuw %struct.ZSTD_seqSymbol, ptr %58, i32 0, i32 1
  %60 = load i8, ptr %59, align 2, !tbaa !53
  %61 = zext i8 %60 to i32
  %62 = icmp sgt i32 %61, 22
  br i1 %62, label %63, label %67

63:                                               ; preds = %52
  %64 = getelementptr inbounds nuw %struct.ZSTD_OffsetInfo, ptr %3, i32 0, i32 0
  %65 = load i32, ptr %64, align 4, !tbaa !51
  %66 = add i32 %65, 1
  store i32 %66, ptr %64, align 4, !tbaa !51
  br label %67

67:                                               ; preds = %63, %52
  br label %68

68:                                               ; preds = %67
  %69 = load i32, ptr %10, align 4, !tbaa !9
  %70 = add i32 %69, 1
  store i32 %70, ptr %10, align 4, !tbaa !9
  br label %26, !llvm.loop !56

71:                                               ; preds = %26
  %72 = load i32, ptr %7, align 4, !tbaa !9
  %73 = sub i32 8, %72
  %74 = getelementptr inbounds nuw %struct.ZSTD_OffsetInfo, ptr %3, i32 0, i32 0
  %75 = load i32, ptr %74, align 4, !tbaa !51
  %76 = shl i32 %75, %73
  store i32 %76, ptr %74, align 4, !tbaa !51
  call void @llvm.lifetime.end.p0(i64 4, ptr %10) #14
  call void @llvm.lifetime.end.p0(i64 4, ptr %9) #14
  call void @llvm.lifetime.end.p0(i64 8, ptr %8) #14
  call void @llvm.lifetime.end.p0(i64 4, ptr %7) #14
  call void @llvm.lifetime.end.p0(i64 8, ptr %6) #14
  br label %77

77:                                               ; preds = %71, %2
  %78 = load i64, ptr %3, align 4
  ret i64 %78
}