; Function Attrs: nofree norecurse nosync nounwind memory(argmem: read) uwtable
define internal fastcc range(i64 0, 1099511627776) i64 @ZSTD_getOffsetInfo(ptr noundef readonly captures(none) %0, i32 noundef %1) unnamed_addr #5 {
  %.not = icmp eq i32 %1, 0
  br i1 %.not, label %23, label %3

3:                                                ; preds = %2
  %4 = getelementptr inbounds nuw i8, ptr %0, i64 4
  %5 = load i32, ptr %4, align 4, !tbaa !57
  %6 = getelementptr i8, ptr %0, i64 10
  br label %7

7:                                                ; preds = %3, %7
  %.024 = phi i32 [ 0, %3 ], [ %14, %7 ]
  %.sroa.0.123 = phi i32 [ 0, %3 ], [ %.sroa.0.2, %7 ]
  %.sroa.6.122 = phi i32 [ 0, %3 ], [ %.sroa.6.1., %7 ]
  %8 = zext i32 %.024 to i64
  %.idx = shl nuw nsw i64 %8, 3
  %9 = getelementptr i8, ptr %6, i64 %.idx
  %10 = load i8, ptr %9, align 2, !tbaa !54
  %11 = zext i8 %10 to i32
  %.sroa.6.1. = tail call i32 @llvm.umax.i32(i32 %.sroa.6.122, i32 %11)
  %12 = icmp ugt i8 %10, 22
  %13 = zext i1 %12 to i32
  %.sroa.0.2 = add i32 %.sroa.0.123, %13
  %14 = add i32 %.024, 1
  %.0.highbits = lshr i32 %14, %5
  %15 = icmp eq i32 %.0.highbits, 0
  br i1 %15, label %7, label %16, !llvm.loop !64

16:                                               ; preds = %7
  %17 = sub i32 8, %5
  %18 = shl i32 %.sroa.0.2, %17
  %19 = zext nneg i32 %.sroa.6.1. to i64
  %20 = shl nuw nsw i64 %19, 32
  %21 = zext i32 %18 to i64
  %22 = or disjoint i64 %20, %21
  br label %23

23:                                               ; preds = %16, %2
  %.sroa.0.0.insert.insert = phi i64 [ %22, %16 ], [ 0, %2 ]
  ret i64 %.sroa.0.0.insert.insert
}